; Function Attrs: mustprogress uwtable
define noundef zeroext i1 @_ZN7rocksdb18WriteableCacheFile10ReadBufferERKNS_19LogicalBlockAddressEPNS_5SliceES5_Pc(ptr noundef nonnull align 8 dereferenceable(273) %this, ptr nocapture noundef nonnull readonly align 4 dereferenceable(12) %lba, ptr nocapture noundef writeonly %key, ptr nocapture noundef writeonly %block, ptr noundef %scratch) local_unnamed_addr #0 align 2 {
entry:
  %size_.i = getelementptr inbounds i8, ptr %lba, i64 8
  %0 = load i32, ptr %size_.i, align 4
  %bufs_.i = getelementptr inbounds i8, ptr %this, i64 208
  %_M_finish.i.i = getelementptr inbounds i8, ptr %this, i64 216
  %tobool.not18.i = icmp eq i32 %0, 0
  br i1 %tobool.not18.i, label %if.end, label %land.rhs.preheader.i

land.rhs.preheader.i:                             ; preds = %entry
  %off_.i = getelementptr inbounds i8, ptr %lba, i64 4
  %1 = load i32, ptr %off_.i, align 4
  %conv2.i = zext i32 %1 to i64
  %alloc_.i = getelementptr inbounds i8, ptr %this, i64 184
  %2 = load ptr, ptr %alloc_.i, align 8
  %buffer_size_.i.i = getelementptr inbounds i8, ptr %2, i64 104
  %3 = load i64, ptr %buffer_size_.i.i, align 8
  %rem.i = urem i64 %conv2.i, %3
  %div.i = udiv i64 %conv2.i, %3
  %conv.i = zext i32 %0 to i64
  br label %land.rhs.i

land.rhs.i:                                       ; preds = %for.body.i, %land.rhs.preheader.i
  %tmp.022.i = phi ptr [ %add.ptr16.i, %for.body.i ], [ %scratch, %land.rhs.preheader.i ]
  %i.021.i = phi i64 [ %inc.i, %for.body.i ], [ %div.i, %land.rhs.preheader.i ]
  %start_off.020.i = phi i64 [ 0, %for.body.i ], [ %rem.i, %land.rhs.preheader.i ]
  %pending_nbytes.019.i = phi i64 [ %sub15.i, %for.body.i ], [ %conv.i, %land.rhs.preheader.i ]
  %4 = load ptr, ptr %_M_finish.i.i, align 8
  %5 = load ptr, ptr %bufs_.i, align 8
  %sub.ptr.lhs.cast.i.i = ptrtoint ptr %4 to i64
  %sub.ptr.rhs.cast.i.i = ptrtoint ptr %5 to i64
  %sub.ptr.sub.i.i = sub i64 %sub.ptr.lhs.cast.i.i, %sub.ptr.rhs.cast.i.i
  %sub.ptr.div.i.i = ashr exact i64 %sub.ptr.sub.i.i, 3
  %cmp.i = icmp ult i64 %i.021.i, %sub.ptr.div.i.i
  br i1 %cmp.i, label %for.body.i, label %if.then

for.body.i:                                       ; preds = %land.rhs.i
  %add.ptr.i.i = getelementptr inbounds ptr, ptr %5, i64 %i.021.i
  %6 = load ptr, ptr %add.ptr.i.i, align 8
  %pos_.i.i = getelementptr inbounds i8, ptr %6, i64 24
  %7 = load i64, ptr %pos_.i.i, align 8
  %sub.i = sub i64 %7, %start_off.020.i
  %spec.select.i = tail call i64 @llvm.umin.i64(i64 %pending_nbytes.019.i, i64 %sub.i)
  %buf_.i.i = getelementptr inbounds i8, ptr %6, i64 8
  %8 = load ptr, ptr %buf_.i.i, align 8
  %add.ptr.i = getelementptr inbounds i8, ptr %8, i64 %start_off.020.i
  tail call void @llvm.memcpy.p0.p0.i64(ptr align 1 %tmp.022.i, ptr align 1 %add.ptr.i, i64 %spec.select.i, i1 false)
  %sub15.i = sub i64 %pending_nbytes.019.i, %spec.select.i
  %add.ptr16.i = getelementptr inbounds i8, ptr %tmp.022.i, i64 %spec.select.i
  %inc.i = add nuw i64 %i.021.i, 1
  %tobool.not.i = icmp eq i64 %sub15.i, 0
  br i1 %tobool.not.i, label %if.end, label %land.rhs.i, !llvm.loop !19

if.then:                                          ; preds = %land.rhs.i
  %log_ = getelementptr inbounds i8, ptr %this, i64 168
  %cache_id_ = getelementptr inbounds i8, ptr %this, i64 128
  %9 = load i32, ptr %cache_id_, align 8
  %10 = load i32, ptr %off_.i, align 4
  tail call void (ptr, ptr, ...) @_ZN7rocksdb5ErrorERKSt10shared_ptrINS_6LoggerEEPKcz(ptr noundef nonnull align 8 dereferenceable(16) %log_, ptr noundef nonnull @.str.17, i32 noundef %9, i32 noundef %10)
  br label %return

if.end:                                           ; preds = %for.body.i, %entry
  %call2 = tail call noundef zeroext i1 @_ZN7rocksdb21RandomAccessCacheFile8ParseRecERKNS_19LogicalBlockAddressEPNS_5SliceES5_Pc(ptr noundef nonnull align 8 dereferenceable(184) %this, ptr noundef nonnull align 4 dereferenceable(12) %lba, ptr noundef %key, ptr noundef %block, ptr noundef %scratch)
  br label %return

return:                                           ; preds = %if.end, %if.then
  %retval.0 = phi i1 [ %call2, %if.end ], [ false, %if.then ]
  ret i1 %retval.0
}